target datalayout = "e-m:e-p270:32:32-p271:32:32-p272:64:64-i64:64-i128:128-f80:128-n8:16:32:64-S128"
target triple = "x86_64-unknown-linux-gnu"

%"class.std::__shared_count" = type { ptr }
%"class.testing::internal::ParamGenerator.69" = type { %"class.std::shared_ptr.70" }
%"class.std::shared_ptr.70" = type { %"class.std::__shared_ptr.71" }
%"class.std::__shared_ptr.71" = type { ptr, %"class.std::__shared_count" }
%"class.testing::internal::ValueArray.405" = type { %"class.testing::internal::FlatTuple.406" }
%"class.testing::internal::FlatTuple.406" = type { %"struct.testing::internal::FlatTupleBase.407" }
%"struct.testing::internal::FlatTupleBase.407" = type { %"struct.testing::internal::FlatTupleElemBase.408", %"struct.testing::internal::FlatTupleElemBase.409", %"struct.testing::internal::FlatTupleElemBase.410", %"struct.testing::internal::FlatTupleElemBase.411", %"struct.testing::internal::FlatTupleElemBase.412", %"struct.testing::internal::FlatTupleElemBase.413" }
%"struct.testing::internal::FlatTupleElemBase.408" = type { ptr }
%"struct.testing::internal::FlatTupleElemBase.409" = type { ptr }
%"struct.testing::internal::FlatTupleElemBase.410" = type { ptr }
%"struct.testing::internal::FlatTupleElemBase.411" = type { ptr }
%"struct.testing::internal::FlatTupleElemBase.412" = type { ptr }
%"struct.testing::internal::FlatTupleElemBase.413" = type { ptr }

@.str.57 = private unnamed_addr constant [2 x i8] c" \00", align 1
@.str.66 = private unnamed_addr constant [1 x i8] zeroinitializer, align 1
@.str.120 = private unnamed_addr constant [2 x i8] zeroinitializer, align 1
@.str.121 = private unnamed_addr constant [8 x i8] c"garbage\00", align 1
@.str.122 = private unnamed_addr constant [7 x i8] c"kkinfo\00", align 1
@.str.123 = private unnamed_addr constant [2 x i8] c"I\00", align 1

; Function Attrs: mustprogress nounwind uwtable
define linkonce_odr dso_local void @_ZN7testing8internal17FlatTupleElemBaseINS0_9FlatTupleIJPKcS4_S4_S4_S4_S4_EEELm5EEC2IS4_EENS0_21FlatTupleConstructTagEOT_(ptr noundef nonnull align 8 dereferenceable(8) %this, ptr noundef nonnull align 8 dereferenceable(8) %t) unnamed_addr #7 comdat align 2 {
entry:
  %this.addr = alloca ptr, align 8
  %t.addr = alloca ptr, align 8
  store ptr %this, ptr %this.addr, align 8
  store ptr %t, ptr %t.addr, align 8
  %this1 = load ptr, ptr %this.addr, align 8
  %value = getelementptr inbounds %"struct.testing::internal::FlatTupleElemBase.413", ptr %this1, i32 0, i32 0
  %0 = load ptr, ptr %t.addr, align 8
  %1 = load ptr, ptr %0, align 8
  store ptr %1, ptr %value, align 8
  ret void
}

; Function Attrs: mustprogress nounwind uwtable
define linkonce_odr dso_local void @_ZN7testing8internal17FlatTupleElemBaseINS0_9FlatTupleIJPKcS4_S4_S4_S4_S4_EEELm4EEC2IS4_EENS0_21FlatTupleConstructTagEOT_(ptr noundef nonnull align 8 dereferenceable(8) %this, ptr noundef nonnull align 8 dereferenceable(8) %t) unnamed_addr #7 comdat align 2 {
entry:
  %this.addr = alloca ptr, align 8
  %t.addr = alloca ptr, align 8
  store ptr %this, ptr %this.addr, align 8
  store ptr %t, ptr %t.addr, align 8
  %this1 = load ptr, ptr %this.addr, align 8
  %value = getelementptr inbounds %"struct.testing::internal::FlatTupleElemBase.412", ptr %this1, i32 0, i32 0
  %0 = load ptr, ptr %t.addr, align 8
  %1 = load ptr, ptr %0, align 8
  store ptr %1, ptr %value, align 8
  ret void
}

; Function Attrs: mustprogress nounwind uwtable
define linkonce_odr dso_local void @_ZN7testing8internal17FlatTupleElemBaseINS0_9FlatTupleIJPKcS4_S4_S4_S4_S4_EEELm3EEC2IS4_EENS0_21FlatTupleConstructTagEOT_(ptr noundef nonnull align 8 dereferenceable(8) %this, ptr noundef nonnull align 8 dereferenceable(8) %t) unnamed_addr #7 comdat align 2 {
entry:
  %this.addr = alloca ptr, align 8
  %t.addr = alloca ptr, align 8
  store ptr %this, ptr %this.addr, align 8
  store ptr %t, ptr %t.addr, align 8
  %this1 = load ptr, ptr %this.addr, align 8
  %value = getelementptr inbounds %"struct.testing::internal::FlatTupleElemBase.411", ptr %this1, i32 0, i32 0
  %0 = load ptr, ptr %t.addr, align 8
  %1 = load ptr, ptr %0, align 8
  store ptr %1, ptr %value, align 8
  ret void
}

; Function Attrs: mustprogress nounwind uwtable
define linkonce_odr dso_local void @_ZN7testing8internal17FlatTupleElemBaseINS0_9FlatTupleIJPKcS4_S4_S4_S4_S4_EEELm2EEC2IS4_EENS0_21FlatTupleConstructTagEOT_(ptr noundef nonnull align 8 dereferenceable(8) %this, ptr noundef nonnull align 8 dereferenceable(8) %t) unnamed_addr #7 comdat align 2 {
entry:
  %this.addr = alloca ptr, align 8
  %t.addr = alloca ptr, align 8
  store ptr %this, ptr %this.addr, align 8
  store ptr %t, ptr %t.addr, align 8
  %this1 = load ptr, ptr %this.addr, align 8
  %value = getelementptr inbounds %"struct.testing::internal::FlatTupleElemBase.410", ptr %this1, i32 0, i32 0
  %0 = load ptr, ptr %t.addr, align 8
  %1 = load ptr, ptr %0, align 8
  store ptr %1, ptr %value, align 8
  ret void
}

; Function Attrs: mustprogress nounwind uwtable
define linkonce_odr dso_local void @_ZN7testing8internal17FlatTupleElemBaseINS0_9FlatTupleIJPKcS4_S4_S4_S4_S4_EEELm1EEC2IS4_EENS0_21FlatTupleConstructTagEOT_(ptr noundef nonnull align 8 dereferenceable(8) %this, ptr noundef nonnull align 8 dereferenceable(8) %t) unnamed_addr #7 comdat align 2 {
entry:
  %this.addr = alloca ptr, align 8
  %t.addr = alloca ptr, align 8
  store ptr %this, ptr %this.addr, align 8
  store ptr %t, ptr %t.addr, align 8
  %this1 = load ptr, ptr %this.addr, align 8
  %value = getelementptr inbounds %"struct.testing::internal::FlatTupleElemBase.409", ptr %this1, i32 0, i32 0
  %0 = load ptr, ptr %t.addr, align 8
  %1 = load ptr, ptr %0, align 8
  store ptr %1, ptr %value, align 8
  ret void
}

; Function Attrs: mustprogress nounwind uwtable
define linkonce_odr dso_local void @_ZN7testing8internal17FlatTupleElemBaseINS0_9FlatTupleIJPKcS4_S4_S4_S4_S4_EEELm0EEC2IS4_EENS0_21FlatTupleConstructTagEOT_(ptr noundef nonnull align 8 dereferenceable(8) %this, ptr noundef nonnull align 8 dereferenceable(8) %t) unnamed_addr #7 comdat align 2 {
entry:
  %this.addr = alloca ptr, align 8
  %t.addr = alloca ptr, align 8
  store ptr %this, ptr %this.addr, align 8
  store ptr %t, ptr %t.addr, align 8
  %this1 = load ptr, ptr %this.addr, align 8
  %value = getelementptr inbounds %"struct.testing::internal::FlatTupleElemBase.408", ptr %this1, i32 0, i32 0
  %0 = load ptr, ptr %t.addr, align 8
  %1 = load ptr, ptr %0, align 8
  store ptr %1, ptr %value, align 8
  ret void
}

; Function Attrs: mustprogress uwtable
define linkonce_odr dso_local void @_ZN7testing8internal13FlatTupleBaseINS0_9FlatTupleIJPKcS4_S4_S4_S4_S4_EEENS0_13IndexSequenceIJLm0ELm1ELm2ELm3ELm4ELm5EEEEEC2IJS4_S4_S4_S4_S4_S4_EEENS0_21FlatTupleConstructTagEDpOT_(ptr noundef nonnull align 8 dereferenceable(48) %this, ptr noundef nonnull align 8 dereferenceable(8) %args, ptr noundef nonnull align 8 dereferenceable(8) %args1, ptr noundef nonnull align 8 dereferenceable(8) %args3, ptr noundef nonnull align 8 dereferenceable(8) %args5, ptr noundef nonnull align 8 dereferenceable(8) %args7, ptr noundef nonnull align 8 dereferenceable(8) %args9) unnamed_addr #4 comdat align 2 {
entry:
  %this.addr = alloca ptr, align 8
  %args.addr = alloca ptr, align 8
  %args.addr2 = alloca ptr, align 8
  %args.addr4 = alloca ptr, align 8
  %args.addr6 = alloca ptr, align 8
  %args.addr8 = alloca ptr, align 8
  %args.addr10 = alloca ptr, align 8
  store ptr %this, ptr %this.addr, align 8
  store ptr %args, ptr %args.addr, align 8
  store ptr %args1, ptr %args.addr2, align 8
  store ptr %args3, ptr %args.addr4, align 8
  store ptr %args5, ptr %args.addr6, align 8
  store ptr %args7, ptr %args.addr8, align 8
  store ptr %args9, ptr %args.addr10, align 8
  %this11 = load ptr, ptr %this.addr, align 8
  %0 = load ptr, ptr %args.addr, align 8
  call void @_ZN7testing8internal17FlatTupleElemBaseINS0_9FlatTupleIJPKcS4_S4_S4_S4_S4_EEELm0EEC2IS4_EENS0_21FlatTupleConstructTagEOT_(ptr noundef nonnull align 8 dereferenceable(8) %this11, ptr noundef nonnull align 8 dereferenceable(8) %0)
  %1 = getelementptr inbounds i8, ptr %this11, i64 8
  %2 = load ptr, ptr %args.addr2, align 8
  call void @_ZN7testing8internal17FlatTupleElemBaseINS0_9FlatTupleIJPKcS4_S4_S4_S4_S4_EEELm1EEC2IS4_EENS0_21FlatTupleConstructTagEOT_(ptr noundef nonnull align 8 dereferenceable(8) %1, ptr noundef nonnull align 8 dereferenceable(8) %2)
  %3 = getelementptr inbounds i8, ptr %this11, i64 16
  %4 = load ptr, ptr %args.addr4, align 8
  call void @_ZN7testing8internal17FlatTupleElemBaseINS0_9FlatTupleIJPKcS4_S4_S4_S4_S4_EEELm2EEC2IS4_EENS0_21FlatTupleConstructTagEOT_(ptr noundef nonnull align 8 dereferenceable(8) %3, ptr noundef nonnull align 8 dereferenceable(8) %4)
  %5 = getelementptr inbounds i8, ptr %this11, i64 24
  %6 = load ptr, ptr %args.addr6, align 8
  call void @_ZN7testing8internal17FlatTupleElemBaseINS0_9FlatTupleIJPKcS4_S4_S4_S4_S4_EEELm3EEC2IS4_EENS0_21FlatTupleConstructTagEOT_(ptr noundef nonnull align 8 dereferenceable(8) %5, ptr noundef nonnull align 8 dereferenceable(8) %6)
  %7 = getelementptr inbounds i8, ptr %this11, i64 32
  %8 = load ptr, ptr %args.addr8, align 8
  call void @_ZN7testing8internal17FlatTupleElemBaseINS0_9FlatTupleIJPKcS4_S4_S4_S4_S4_EEELm4EEC2IS4_EENS0_21FlatTupleConstructTagEOT_(ptr noundef nonnull align 8 dereferenceable(8) %7, ptr noundef nonnull align 8 dereferenceable(8) %8)
  %9 = getelementptr inbounds i8, ptr %this11, i64 40
  %10 = load ptr, ptr %args.addr10, align 8
  call void @_ZN7testing8internal17FlatTupleElemBaseINS0_9FlatTupleIJPKcS4_S4_S4_S4_S4_EEELm5EEC2IS4_EENS0_21FlatTupleConstructTagEOT_(ptr noundef nonnull align 8 dereferenceable(8) %9, ptr noundef nonnull align 8 dereferenceable(8) %10)
  ret void
}

; Function Attrs: mustprogress uwtable
define linkonce_odr dso_local void @_ZN7testing8internal9FlatTupleIJPKcS3_S3_S3_S3_S3_EEC2IJS3_S3_S3_S3_S3_S3_EEENS0_21FlatTupleConstructTagEDpOT_(ptr noundef nonnull align 8 dereferenceable(48) %this, ptr noundef nonnull align 8 dereferenceable(8) %args, ptr noundef nonnull align 8 dereferenceable(8) %args1, ptr noundef nonnull align 8 dereferenceable(8) %args3, ptr noundef nonnull align 8 dereferenceable(8) %args5, ptr noundef nonnull align 8 dereferenceable(8) %args7, ptr noundef nonnull align 8 dereferenceable(8) %args9) unnamed_addr #4 comdat align 2 {
entry:
  %this.addr = alloca ptr, align 8
  %args.addr = alloca ptr, align 8
  %args.addr2 = alloca ptr, align 8
  %args.addr4 = alloca ptr, align 8
  %args.addr6 = alloca ptr, align 8
  %args.addr8 = alloca ptr, align 8
  %args.addr10 = alloca ptr, align 8
  store ptr %this, ptr %this.addr, align 8
  store ptr %args, ptr %args.addr, align 8
  store ptr %args1, ptr %args.addr2, align 8
  store ptr %args3, ptr %args.addr4, align 8
  store ptr %args5, ptr %args.addr6, align 8
  store ptr %args7, ptr %args.addr8, align 8
  store ptr %args9, ptr %args.addr10, align 8
  %this11 = load ptr, ptr %this.addr, align 8
  %0 = load ptr, ptr %args.addr, align 8
  %1 = load ptr, ptr %args.addr2, align 8
  %2 = load ptr, ptr %args.addr4, align 8
  %3 = load ptr, ptr %args.addr6, align 8
  %4 = load ptr, ptr %args.addr8, align 8
  %5 = load ptr, ptr %args.addr10, align 8
  call void @_ZN7testing8internal13FlatTupleBaseINS0_9FlatTupleIJPKcS4_S4_S4_S4_S4_EEENS0_13IndexSequenceIJLm0ELm1ELm2ELm3ELm4ELm5EEEEEC2IJS4_S4_S4_S4_S4_S4_EEENS0_21FlatTupleConstructTagEDpOT_(ptr noundef nonnull align 8 dereferenceable(48) %this11, ptr noundef nonnull align 8 dereferenceable(8) %0, ptr noundef nonnull align 8 dereferenceable(8) %1, ptr noundef nonnull align 8 dereferenceable(8) %2, ptr noundef nonnull align 8 dereferenceable(8) %3, ptr noundef nonnull align 8 dereferenceable(8) %4, ptr noundef nonnull align 8 dereferenceable(8) %5)
  ret void
}

; Function Attrs: mustprogress uwtable
define linkonce_odr dso_local void @_ZN7testing8internal10ValueArrayIJPKcS3_S3_S3_S3_S3_EEC2ES3_S3_S3_S3_S3_S3_(ptr noundef nonnull align 8 dereferenceable(48) %this, ptr noundef %v, ptr noundef %v1, ptr noundef %v3, ptr noundef %v5, ptr noundef %v7, ptr noundef %v9) unnamed_addr #4 comdat align 2 {
entry:
  %this.addr = alloca ptr, align 8
  %v.addr = alloca ptr, align 8
  %v.addr2 = alloca ptr, align 8
  %v.addr4 = alloca ptr, align 8
  %v.addr6 = alloca ptr, align 8
  %v.addr8 = alloca ptr, align 8
  %v.addr10 = alloca ptr, align 8
  store ptr %this, ptr %this.addr, align 8
  store ptr %v, ptr %v.addr, align 8
  store ptr %v1, ptr %v.addr2, align 8
  store ptr %v3, ptr %v.addr4, align 8
  store ptr %v5, ptr %v.addr6, align 8
  store ptr %v7, ptr %v.addr8, align 8
  store ptr %v9, ptr %v.addr10, align 8
  %this11 = load ptr, ptr %this.addr, align 8
  %v_ = getelementptr inbounds %"class.testing::internal::ValueArray.405", ptr %this11, i32 0, i32 0
  call void @_ZN7testing8internal9FlatTupleIJPKcS3_S3_S3_S3_S3_EEC2IJS3_S3_S3_S3_S3_S3_EEENS0_21FlatTupleConstructTagEDpOT_(ptr noundef nonnull align 8 dereferenceable(48) %v_, ptr noundef nonnull align 8 dereferenceable(8) %v.addr, ptr noundef nonnull align 8 dereferenceable(8) %v.addr2, ptr noundef nonnull align 8 dereferenceable(8) %v.addr4, ptr noundef nonnull align 8 dereferenceable(8) %v.addr6, ptr noundef nonnull align 8 dereferenceable(8) %v.addr8, ptr noundef nonnull align 8 dereferenceable(8) %v.addr10)
  ret void
}

; Function Attrs: mustprogress uwtable
define linkonce_odr dso_local void @_ZN7testing6ValuesIJPKcS2_S2_S2_S2_S2_EEENS_8internal10ValueArrayIJDpT_EEES6_(ptr noalias sret(%"class.testing::internal::ValueArray.405") align 8 %agg.result, ptr noundef %v, ptr noundef %v1, ptr noundef %v3, ptr noundef %v5, ptr noundef %v7, ptr noundef %v9) #4 comdat {
entry:
  %v.addr = alloca ptr, align 8
  %v.addr2 = alloca ptr, align 8
  %v.addr4 = alloca ptr, align 8
  %v.addr6 = alloca ptr, align 8
  %v.addr8 = alloca ptr, align 8
  %v.addr10 = alloca ptr, align 8
  store ptr %v, ptr %v.addr, align 8
  store ptr %v1, ptr %v.addr2, align 8
  store ptr %v3, ptr %v.addr4, align 8
  store ptr %v5, ptr %v.addr6, align 8
  store ptr %v7, ptr %v.addr8, align 8
  store ptr %v9, ptr %v.addr10, align 8
  %0 = load ptr, ptr %v.addr, align 8
  %1 = load ptr, ptr %v.addr2, align 8
  %2 = load ptr, ptr %v.addr4, align 8
  %3 = load ptr, ptr %v.addr6, align 8
  %4 = load ptr, ptr %v.addr8, align 8
  %5 = load ptr, ptr %v.addr10, align 8
  call void @_ZN7testing8internal10ValueArrayIJPKcS3_S3_S3_S3_S3_EEC2ES3_S3_S3_S3_S3_S3_(ptr noundef nonnull align 8 dereferenceable(48) %agg.result, ptr noundef %0, ptr noundef %1, ptr noundef %2, ptr noundef %3, ptr noundef %4, ptr noundef %5)
  ret void
}

; Function Attrs: mustprogress uwtable
define internal void @_ZN12_GLOBAL__N_158gtest_InstantiationParseFlagFromGarbageTest_EvalGenerator_Ev(ptr noalias sret(%"class.testing::internal::ParamGenerator.69") align 8 %agg.result) #4 {
entry:
  %result.ptr = alloca ptr, align 8
  %ref.tmp = alloca %"class.testing::internal::ValueArray.405", align 8
  store ptr %agg.result, ptr %result.ptr, align 8
  call void @_ZN7testing6ValuesIJPKcS2_S2_S2_S2_S2_EEENS_8internal10ValueArrayIJDpT_EEES6_(ptr sret(%"class.testing::internal::ValueArray.405") align 8 %ref.tmp, ptr noundef @.str.66, ptr noundef @.str.120, ptr noundef @.str.57, ptr noundef @.str.121, ptr noundef @.str.122, ptr noundef @.str.123)
  call void @_ZNK7testing8internal10ValueArrayIJPKcS3_S3_S3_S3_S3_EEcvNS0_14ParamGeneratorIT_EEISt17basic_string_viewIcSt11char_traitsIcEEEEv(ptr sret(%"class.testing::internal::ParamGenerator.69") align 8 %agg.result, ptr noundef nonnull align 8 dereferenceable(48) %ref.tmp)
  ret void
}