; Function Attrs: mustprogress uwtable
define internal void @_ZN12_GLOBAL__N_158gtest_InstantiationParseFlagFromGarbageTest_EvalGenerator_Ev(ptr noalias sret(%"class.testing::internal::ParamGenerator.69") align 8 %agg.result) #3 {
entry:
  %ref.tmp = alloca %"class.testing::internal::ValueArray.405", align 8
  store ptr @.str.66, ptr %ref.tmp, align 8, !alias.scope !51
  %0 = getelementptr inbounds i8, ptr %ref.tmp, i64 8
  store ptr @.str.120, ptr %0, align 8, !alias.scope !51
  %1 = getelementptr inbounds i8, ptr %ref.tmp, i64 16
  store ptr @.str.57, ptr %1, align 8, !alias.scope !51
  %2 = getelementptr inbounds i8, ptr %ref.tmp, i64 24
  store ptr @.str.121, ptr %2, align 8, !alias.scope !51
  %3 = getelementptr inbounds i8, ptr %ref.tmp, i64 32
  store ptr @.str.122, ptr %3, align 8, !alias.scope !51
  %4 = getelementptr inbounds i8, ptr %ref.tmp, i64 40
  store ptr @.str.123, ptr %4, align 8, !alias.scope !51
  call void @_ZNK7testing8internal10ValueArrayIJPKcS3_S3_S3_S3_S3_EEcvNS0_14ParamGeneratorIT_EEISt17basic_string_viewIcSt11char_traitsIcEEEEv(ptr sret(%"class.testing::internal::ParamGenerator.69") align 8 %agg.result, ptr noundef nonnull align 8 dereferenceable(48) %ref.tmp)
  ret void
}